; Function Attrs: mustprogress uwtable
define void @_ZN5faiss22write_ProductQuantizerEPKNS_16ProductQuantizerEPKc(ptr noundef %0, ptr noundef %1) local_unnamed_addr #3 personality ptr @__gxx_personality_v0 {
  %3 = alloca %"struct.faiss::FileIOWriter", align 8
  call void @_ZN5faiss12FileIOWriterC1EPKc(ptr noundef nonnull align 8 dereferenceable(49) %3, ptr noundef %1)
  invoke void @_ZN5faiss22write_ProductQuantizerEPKNS_16ProductQuantizerEPNS_8IOWriterE(ptr noundef %0, ptr noundef nonnull %3)
          to label %4 unwind label %5

4:                                                ; preds = %2
  call void @_ZN5faiss12FileIOWriterD1Ev(ptr noundef nonnull align 8 dereferenceable(49) %3)
  ret void

5:                                                ; preds = %2
  %6 = landingpad { ptr, i32 }
          cleanup
  invoke void @_ZN5faiss12FileIOWriterD1Ev(ptr noundef nonnull align 8 dereferenceable(49) %3)
          to label %7 unwind label %8

7:                                                ; preds = %5
  resume { ptr, i32 } %6

8:                                                ; preds = %5
  %9 = landingpad { ptr, i32 }
          catch ptr null
  %10 = extractvalue { ptr, i32 } %9, 0
  call void @__clang_call_terminate(ptr %10) #21
  unreachable
}